target datalayout = "e-m:e-p270:32:32-p271:32:32-p272:64:64-i64:64-i128:128-f80:128-n8:16:32:64-S128"
target triple = "x86_64-pc-linux-gnu"

; Function Attrs: nounwind uwtable
define void @ff_add_png_paeth_prediction(ptr noundef %0, ptr noundef %1, ptr noundef %2, i32 noundef %3, i32 noundef %4) #0 {
  %6 = alloca ptr, align 8
  %7 = alloca ptr, align 8
  %8 = alloca ptr, align 8
  %9 = alloca i32, align 4
  %10 = alloca i32, align 4
  %11 = alloca i32, align 4
  %12 = alloca i32, align 4
  %13 = alloca i32, align 4
  %14 = alloca i32, align 4
  %15 = alloca i32, align 4
  %16 = alloca i32, align 4
  %17 = alloca i32, align 4
  %18 = alloca i32, align 4
  store ptr %0, ptr %6, align 8, !tbaa !4
  store ptr %1, ptr %7, align 8, !tbaa !4
  store ptr %2, ptr %8, align 8, !tbaa !4
  store i32 %3, ptr %9, align 4, !tbaa !9
  store i32 %4, ptr %10, align 4, !tbaa !9
  call void @llvm.lifetime.start.p0(i64 4, ptr %11) #13
  store i32 0, ptr %11, align 4, !tbaa !9
  br label %19

19:                                               ; preds = %92, %5
  %20 = load i32, ptr %11, align 4, !tbaa !9
  %21 = load i32, ptr %9, align 4, !tbaa !9
  %22 = icmp slt i32 %20, %21
  br i1 %22, label %23, label %95

23:                                               ; preds = %19
  call void @llvm.lifetime.start.p0(i64 4, ptr %12) #13
  call void @llvm.lifetime.start.p0(i64 4, ptr %13) #13
  call void @llvm.lifetime.start.p0(i64 4, ptr %14) #13
  call void @llvm.lifetime.start.p0(i64 4, ptr %15) #13
  call void @llvm.lifetime.start.p0(i64 4, ptr %16) #13
  call void @llvm.lifetime.start.p0(i64 4, ptr %17) #13
  call void @llvm.lifetime.start.p0(i64 4, ptr %18) #13
  %24 = load ptr, ptr %6, align 8, !tbaa !4
  %25 = load i32, ptr %11, align 4, !tbaa !9
  %26 = load i32, ptr %10, align 4, !tbaa !9
  %27 = sub nsw i32 %25, %26
  %28 = sext i32 %27 to i64
  %29 = getelementptr inbounds i8, ptr %24, i64 %28
  %30 = load i8, ptr %29, align 1, !tbaa !11
  %31 = zext i8 %30 to i32
  store i32 %31, ptr %12, align 4, !tbaa !9
  %32 = load ptr, ptr %8, align 8, !tbaa !4
  %33 = load i32, ptr %11, align 4, !tbaa !9
  %34 = sext i32 %33 to i64
  %35 = getelementptr inbounds i8, ptr %32, i64 %34
  %36 = load i8, ptr %35, align 1, !tbaa !11
  %37 = zext i8 %36 to i32
  store i32 %37, ptr %13, align 4, !tbaa !9
  %38 = load ptr, ptr %8, align 8, !tbaa !4
  %39 = load i32, ptr %11, align 4, !tbaa !9
  %40 = load i32, ptr %10, align 4, !tbaa !9
  %41 = sub nsw i32 %39, %40
  %42 = sext i32 %41 to i64
  %43 = getelementptr inbounds i8, ptr %38, i64 %42
  %44 = load i8, ptr %43, align 1, !tbaa !11
  %45 = zext i8 %44 to i32
  store i32 %45, ptr %14, align 4, !tbaa !9
  %46 = load i32, ptr %13, align 4, !tbaa !9
  %47 = load i32, ptr %14, align 4, !tbaa !9
  %48 = sub nsw i32 %46, %47
  store i32 %48, ptr %15, align 4, !tbaa !9
  %49 = load i32, ptr %12, align 4, !tbaa !9
  %50 = load i32, ptr %14, align 4, !tbaa !9
  %51 = sub nsw i32 %49, %50
  store i32 %51, ptr %18, align 4, !tbaa !9
  %52 = load i32, ptr %15, align 4, !tbaa !9
  %53 = call i32 @llvm.abs.i32(i32 %52, i1 true)
  store i32 %53, ptr %16, align 4, !tbaa !9
  %54 = load i32, ptr %18, align 4, !tbaa !9
  %55 = call i32 @llvm.abs.i32(i32 %54, i1 true)
  store i32 %55, ptr %17, align 4, !tbaa !9
  %56 = load i32, ptr %15, align 4, !tbaa !9
  %57 = load i32, ptr %18, align 4, !tbaa !9
  %58 = add nsw i32 %56, %57
  %59 = call i32 @llvm.abs.i32(i32 %58, i1 true)
  store i32 %59, ptr %18, align 4, !tbaa !9
  %60 = load i32, ptr %16, align 4, !tbaa !9
  %61 = load i32, ptr %17, align 4, !tbaa !9
  %62 = icmp sle i32 %60, %61
  br i1 %62, label %63, label %69

63:                                               ; preds = %23
  %64 = load i32, ptr %16, align 4, !tbaa !9
  %65 = load i32, ptr %18, align 4, !tbaa !9
  %66 = icmp sle i32 %64, %65
  br i1 %66, label %67, label %69

67:                                               ; preds = %63
  %68 = load i32, ptr %12, align 4, !tbaa !9
  store i32 %68, ptr %15, align 4, !tbaa !9
  br label %78

69:                                               ; preds = %63, %23
  %70 = load i32, ptr %17, align 4, !tbaa !9
  %71 = load i32, ptr %18, align 4, !tbaa !9
  %72 = icmp sle i32 %70, %71
  br i1 %72, label %73, label %75

73:                                               ; preds = %69
  %74 = load i32, ptr %13, align 4, !tbaa !9
  store i32 %74, ptr %15, align 4, !tbaa !9
  br label %77

75:                                               ; preds = %69
  %76 = load i32, ptr %14, align 4, !tbaa !9
  store i32 %76, ptr %15, align 4, !tbaa !9
  br label %77

77:                                               ; preds = %75, %73
  br label %78

78:                                               ; preds = %77, %67
  %79 = load i32, ptr %15, align 4, !tbaa !9
  %80 = load ptr, ptr %7, align 8, !tbaa !4
  %81 = load i32, ptr %11, align 4, !tbaa !9
  %82 = sext i32 %81 to i64
  %83 = getelementptr inbounds i8, ptr %80, i64 %82
  %84 = load i8, ptr %83, align 1, !tbaa !11
  %85 = zext i8 %84 to i32
  %86 = add nsw i32 %79, %85
  %87 = trunc i32 %86 to i8
  %88 = load ptr, ptr %6, align 8, !tbaa !4
  %89 = load i32, ptr %11, align 4, !tbaa !9
  %90 = sext i32 %89 to i64
  %91 = getelementptr inbounds i8, ptr %88, i64 %90
  store i8 %87, ptr %91, align 1, !tbaa !11
  call void @llvm.lifetime.end.p0(i64 4, ptr %18) #13
  call void @llvm.lifetime.end.p0(i64 4, ptr %17) #13
  call void @llvm.lifetime.end.p0(i64 4, ptr %16) #13
  call void @llvm.lifetime.end.p0(i64 4, ptr %15) #13
  call void @llvm.lifetime.end.p0(i64 4, ptr %14) #13
  call void @llvm.lifetime.end.p0(i64 4, ptr %13) #13
  call void @llvm.lifetime.end.p0(i64 4, ptr %12) #13
  br label %92

92:                                               ; preds = %78
  %93 = load i32, ptr %11, align 4, !tbaa !9
  %94 = add nsw i32 %93, 1
  store i32 %94, ptr %11, align 4, !tbaa !9
  br label %19, !llvm.loop !12

95:                                               ; preds = %19
  call void @llvm.lifetime.end.p0(i64 4, ptr %11) #13
  ret void
}