; Function Attrs: nofree norecurse nosync nounwind memory(argmem: readwrite) uwtable
define void @ff_add_png_paeth_prediction(ptr noundef captures(none) %0, ptr noundef readonly captures(none) %1, ptr noundef readonly captures(none) %2, i32 noundef %3, i32 noundef %4) local_unnamed_addr #0 {
  %6 = icmp sgt i32 %3, 0
  br i1 %6, label %.lr.ph.preheader, label %._crit_edge

.lr.ph.preheader:                                 ; preds = %5
  %7 = sext i32 %4 to i64
  %wide.trip.count = zext nneg i32 %3 to i64
  br label %.lr.ph

.lr.ph:                                           ; preds = %.lr.ph.preheader, %.lr.ph
  %indvars.iv = phi i64 [ 0, %.lr.ph.preheader ], [ %indvars.iv.next, %.lr.ph ]
  %8 = sub nsw i64 %indvars.iv, %7
  %9 = getelementptr inbounds i8, ptr %0, i64 %8
  %10 = load i8, ptr %9, align 1, !tbaa !4
  %11 = zext i8 %10 to i32
  %12 = getelementptr inbounds nuw i8, ptr %2, i64 %indvars.iv
  %13 = load i8, ptr %12, align 1, !tbaa !4
  %14 = zext i8 %13 to i32
  %15 = getelementptr inbounds i8, ptr %2, i64 %8
  %16 = load i8, ptr %15, align 1, !tbaa !4
  %17 = zext i8 %16 to i32
  %18 = sub nsw i32 %14, %17
  %19 = sub nsw i32 %11, %17
  %20 = tail call i32 @llvm.abs.i32(i32 %18, i1 true)
  %21 = tail call i32 @llvm.abs.i32(i32 %19, i1 true)
  %22 = add nsw i32 %18, %19
  %23 = tail call i32 @llvm.abs.i32(i32 %22, i1 true)
  %.not = icmp samesign ugt i32 %20, %21
  %.not34 = icmp samesign ugt i32 %20, %23
  %or.cond = select i1 %.not, i1 true, i1 %.not34
  %.not35 = icmp samesign ugt i32 %21, %23
  %. = select i1 %.not35, i8 %16, i8 %13
  %.032 = select i1 %or.cond, i8 %., i8 %10
  %24 = getelementptr inbounds nuw i8, ptr %1, i64 %indvars.iv
  %25 = load i8, ptr %24, align 1, !tbaa !4
  %26 = add i8 %.032, %25
  %27 = getelementptr inbounds nuw i8, ptr %0, i64 %indvars.iv
  store i8 %26, ptr %27, align 1, !tbaa !4
  %indvars.iv.next = add nuw nsw i64 %indvars.iv, 1
  %exitcond.not = icmp eq i64 %indvars.iv.next, %wide.trip.count
  br i1 %exitcond.not, label %._crit_edge, label %.lr.ph, !llvm.loop !7

._crit_edge:                                      ; preds = %.lr.ph, %5
  ret void
}